
kernel/kernel.elf:     file format elf32-littlearm


Disassembly of section .text:

00008000 <__start>:
    8000:	e8a0003c 	stmia	r0!, {r2, r3, r4, r5}
    8004:	e1500001 	cmp	r0, r1
    8008:	3afffffc 	bcc	8000 <__start>
    800c:	eb0000cb 	bl	8340 <kernel_main>

00008010 <hang>:
    8010:	e320f003 	wfi
    8014:	eafffffd 	b	8010 <hang>

00008018 <gpio_config>:
    8018:	e52db004 	push	{fp}		; (str fp, [sp, #-4]!)
    801c:	e28db000 	add	fp, sp, #0
    8020:	e24dd01c 	sub	sp, sp, #28
    8024:	e1a03000 	mov	r3, r0
    8028:	e1a02001 	mov	r2, r1
    802c:	e54b3015 	strb	r3, [fp, #-21]	; 0xffffffeb
    8030:	e1a03002 	mov	r3, r2
    8034:	e54b3016 	strb	r3, [fp, #-22]	; 0xffffffea
    8038:	e55b3015 	ldrb	r3, [fp, #-21]	; 0xffffffeb
    803c:	e3530035 	cmp	r3, #53	; 0x35
    8040:	8a000037 	bhi	8124 <gpio_config+0x10c>
    8044:	e55b3016 	ldrb	r3, [fp, #-22]	; 0xffffffea
    8048:	e3530007 	cmp	r3, #7
    804c:	8a000034 	bhi	8124 <gpio_config+0x10c>
    8050:	e55b2015 	ldrb	r2, [fp, #-21]	; 0xffffffeb
    8054:	e30c3ccd 	movw	r3, #52429	; 0xcccd
    8058:	e34c3ccc 	movt	r3, #52428	; 0xcccc
    805c:	e0832293 	umull	r2, r3, r3, r2
    8060:	e1a031a3 	lsr	r3, r3, #3
    8064:	e6ef3073 	uxtb	r3, r3
    8068:	e50b3008 	str	r3, [fp, #-8]
    806c:	e30b3000 	movw	r3, #45056	; 0xb000
    8070:	e3403000 	movt	r3, #0
    8074:	e5932000 	ldr	r2, [r3]
    8078:	e51b3008 	ldr	r3, [fp, #-8]
    807c:	e1a03103 	lsl	r3, r3, #2
    8080:	e0823003 	add	r3, r2, r3
    8084:	e5933000 	ldr	r3, [r3]
    8088:	e50b300c 	str	r3, [fp, #-12]
    808c:	e55b2015 	ldrb	r2, [fp, #-21]	; 0xffffffeb
    8090:	e30c3ccd 	movw	r3, #52429	; 0xcccd
    8094:	e34c3ccc 	movt	r3, #52428	; 0xcccc
    8098:	e0831293 	umull	r1, r3, r3, r2
    809c:	e1a031a3 	lsr	r3, r3, #3
    80a0:	e3a0100a 	mov	r1, #10
    80a4:	e0030391 	mul	r3, r1, r3
    80a8:	e0423003 	sub	r3, r2, r3
    80ac:	e6ef3073 	uxtb	r3, r3
    80b0:	e1a02003 	mov	r2, r3
    80b4:	e1a03002 	mov	r3, r2
    80b8:	e1a03083 	lsl	r3, r3, #1
    80bc:	e0833002 	add	r3, r3, r2
    80c0:	e50b3010 	str	r3, [fp, #-16]
    80c4:	e3a02007 	mov	r2, #7
    80c8:	e51b3010 	ldr	r3, [fp, #-16]
    80cc:	e1a03312 	lsl	r3, r2, r3
    80d0:	e1e03003 	mvn	r3, r3
    80d4:	e1a02003 	mov	r2, r3
    80d8:	e51b300c 	ldr	r3, [fp, #-12]
    80dc:	e0033002 	and	r3, r3, r2
    80e0:	e50b300c 	str	r3, [fp, #-12]
    80e4:	e55b2016 	ldrb	r2, [fp, #-22]	; 0xffffffea
    80e8:	e51b3010 	ldr	r3, [fp, #-16]
    80ec:	e1a03312 	lsl	r3, r2, r3
    80f0:	e1a02003 	mov	r2, r3
    80f4:	e51b300c 	ldr	r3, [fp, #-12]
    80f8:	e1833002 	orr	r3, r3, r2
    80fc:	e50b300c 	str	r3, [fp, #-12]
    8100:	e30b3000 	movw	r3, #45056	; 0xb000
    8104:	e3403000 	movt	r3, #0
    8108:	e5932000 	ldr	r2, [r3]
    810c:	e51b3008 	ldr	r3, [fp, #-8]
    8110:	e1a03103 	lsl	r3, r3, #2
    8114:	e0823003 	add	r3, r2, r3
    8118:	e51b200c 	ldr	r2, [fp, #-12]
    811c:	e5832000 	str	r2, [r3]
    8120:	ea000000 	b	8128 <gpio_config+0x110>
    8124:	e320f000 	nop	{0}
    8128:	e28bd000 	add	sp, fp, #0
    812c:	e49db004 	pop	{fp}		; (ldr fp, [sp], #4)
    8130:	e12fff1e 	bx	lr

00008134 <gpio_set>:
    8134:	e52db004 	push	{fp}		; (str fp, [sp, #-4]!)
    8138:	e28db000 	add	fp, sp, #0
    813c:	e24dd00c 	sub	sp, sp, #12
    8140:	e1a03000 	mov	r3, r0
    8144:	e54b3005 	strb	r3, [fp, #-5]
    8148:	e55b3005 	ldrb	r3, [fp, #-5]
    814c:	e3530035 	cmp	r3, #53	; 0x35
    8150:	8a000015 	bhi	81ac <gpio_set+0x78>
    8154:	e55b3005 	ldrb	r3, [fp, #-5]
    8158:	e353001f 	cmp	r3, #31
    815c:	9a000009 	bls	8188 <gpio_set+0x54>
    8160:	e55b3005 	ldrb	r3, [fp, #-5]
    8164:	e2433020 	sub	r3, r3, #32
    8168:	e3a02001 	mov	r2, #1
    816c:	e1a02312 	lsl	r2, r2, r3
    8170:	e30b3000 	movw	r3, #45056	; 0xb000
    8174:	e3403000 	movt	r3, #0
    8178:	e5933000 	ldr	r3, [r3]
    817c:	e2833020 	add	r3, r3, #32
    8180:	e5832000 	str	r2, [r3]
    8184:	ea000009 	b	81b0 <gpio_set+0x7c>
    8188:	e55b3005 	ldrb	r3, [fp, #-5]
    818c:	e3a02001 	mov	r2, #1
    8190:	e1a02312 	lsl	r2, r2, r3
    8194:	e30b3000 	movw	r3, #45056	; 0xb000
    8198:	e3403000 	movt	r3, #0
    819c:	e5933000 	ldr	r3, [r3]
    81a0:	e283301c 	add	r3, r3, #28
    81a4:	e5832000 	str	r2, [r3]
    81a8:	ea000000 	b	81b0 <gpio_set+0x7c>
    81ac:	e320f000 	nop	{0}
    81b0:	e28bd000 	add	sp, fp, #0
    81b4:	e49db004 	pop	{fp}		; (ldr fp, [sp], #4)
    81b8:	e12fff1e 	bx	lr

000081bc <gpio_clr>:
    81bc:	e52db004 	push	{fp}		; (str fp, [sp, #-4]!)
    81c0:	e28db000 	add	fp, sp, #0
    81c4:	e24dd00c 	sub	sp, sp, #12
    81c8:	e1a03000 	mov	r3, r0
    81cc:	e54b3005 	strb	r3, [fp, #-5]
    81d0:	e55b3005 	ldrb	r3, [fp, #-5]
    81d4:	e3530035 	cmp	r3, #53	; 0x35
    81d8:	8a000015 	bhi	8234 <gpio_clr+0x78>
    81dc:	e55b3005 	ldrb	r3, [fp, #-5]
    81e0:	e353001f 	cmp	r3, #31
    81e4:	9a000009 	bls	8210 <gpio_clr+0x54>
    81e8:	e55b3005 	ldrb	r3, [fp, #-5]
    81ec:	e2433020 	sub	r3, r3, #32
    81f0:	e3a02001 	mov	r2, #1
    81f4:	e1a02312 	lsl	r2, r2, r3
    81f8:	e30b3000 	movw	r3, #45056	; 0xb000
    81fc:	e3403000 	movt	r3, #0
    8200:	e5933000 	ldr	r3, [r3]
    8204:	e283302c 	add	r3, r3, #44	; 0x2c
    8208:	e5832000 	str	r2, [r3]
    820c:	ea000009 	b	8238 <gpio_clr+0x7c>
    8210:	e55b3005 	ldrb	r3, [fp, #-5]
    8214:	e3a02001 	mov	r2, #1
    8218:	e1a02312 	lsl	r2, r2, r3
    821c:	e30b3000 	movw	r3, #45056	; 0xb000
    8220:	e3403000 	movt	r3, #0
    8224:	e5933000 	ldr	r3, [r3]
    8228:	e2833028 	add	r3, r3, #40	; 0x28
    822c:	e5832000 	str	r2, [r3]
    8230:	ea000000 	b	8238 <gpio_clr+0x7c>
    8234:	e320f000 	nop	{0}
    8238:	e28bd000 	add	sp, fp, #0
    823c:	e49db004 	pop	{fp}		; (ldr fp, [sp], #4)
    8240:	e12fff1e 	bx	lr

00008244 <gpio_set_pull>:
    8244:	e92d4800 	push	{fp, lr}
    8248:	e28db004 	add	fp, sp, #4
    824c:	e24dd008 	sub	sp, sp, #8
    8250:	e1a03000 	mov	r3, r0
    8254:	e1a02001 	mov	r2, r1
    8258:	e54b3005 	strb	r3, [fp, #-5]
    825c:	e1a03002 	mov	r3, r2
    8260:	e54b3006 	strb	r3, [fp, #-6]
    8264:	e55b3005 	ldrb	r3, [fp, #-5]
    8268:	e3530035 	cmp	r3, #53	; 0x35
    826c:	8a000030 	bhi	8334 <gpio_set_pull+0xf0>
    8270:	e55b3006 	ldrb	r3, [fp, #-6]
    8274:	e3530002 	cmp	r3, #2
    8278:	8a00002d 	bhi	8334 <gpio_set_pull+0xf0>
    827c:	e30b3000 	movw	r3, #45056	; 0xb000
    8280:	e3403000 	movt	r3, #0
    8284:	e5933000 	ldr	r3, [r3]
    8288:	e2833094 	add	r3, r3, #148	; 0x94
    828c:	e55b2006 	ldrb	r2, [fp, #-6]
    8290:	e5832000 	str	r2, [r3]
    8294:	e3a00096 	mov	r0, #150	; 0x96
    8298:	eb000299 	bl	8d04 <delay_cycles>
    829c:	e55b3005 	ldrb	r3, [fp, #-5]
    82a0:	e353001f 	cmp	r3, #31
    82a4:	9a000011 	bls	82f0 <gpio_set_pull+0xac>
    82a8:	e55b3005 	ldrb	r3, [fp, #-5]
    82ac:	e2433020 	sub	r3, r3, #32
    82b0:	e3a02001 	mov	r2, #1
    82b4:	e1a02312 	lsl	r2, r2, r3
    82b8:	e30b3000 	movw	r3, #45056	; 0xb000
    82bc:	e3403000 	movt	r3, #0
    82c0:	e5933000 	ldr	r3, [r3]
    82c4:	e283309c 	add	r3, r3, #156	; 0x9c
    82c8:	e5832000 	str	r2, [r3]
    82cc:	e3a00096 	mov	r0, #150	; 0x96
    82d0:	eb00028b 	bl	8d04 <delay_cycles>
    82d4:	e30b3000 	movw	r3, #45056	; 0xb000
    82d8:	e3403000 	movt	r3, #0
    82dc:	e5933000 	ldr	r3, [r3]
    82e0:	e283309c 	add	r3, r3, #156	; 0x9c
    82e4:	e3a02000 	mov	r2, #0
    82e8:	e5832000 	str	r2, [r3]
    82ec:	ea000011 	b	8338 <gpio_set_pull+0xf4>
    82f0:	e55b3005 	ldrb	r3, [fp, #-5]
    82f4:	e3a02001 	mov	r2, #1
    82f8:	e1a02312 	lsl	r2, r2, r3
    82fc:	e30b3000 	movw	r3, #45056	; 0xb000
    8300:	e3403000 	movt	r3, #0
    8304:	e5933000 	ldr	r3, [r3]
    8308:	e2833098 	add	r3, r3, #152	; 0x98
    830c:	e5832000 	str	r2, [r3]
    8310:	e3a00096 	mov	r0, #150	; 0x96
    8314:	eb00027a 	bl	8d04 <delay_cycles>
    8318:	e30b3000 	movw	r3, #45056	; 0xb000
    831c:	e3403000 	movt	r3, #0
    8320:	e5933000 	ldr	r3, [r3]
    8324:	e2833098 	add	r3, r3, #152	; 0x98
    8328:	e3a02000 	mov	r2, #0
    832c:	e5832000 	str	r2, [r3]
    8330:	ea000000 	b	8338 <gpio_set_pull+0xf4>
    8334:	e320f000 	nop	{0}
    8338:	e24bd004 	sub	sp, fp, #4
    833c:	e8bd8800 	pop	{fp, pc}

00008340 <kernel_main>:
    8340:	e92d4800 	push	{fp, lr}
    8344:	e28db004 	add	fp, sp, #4
    8348:	e24dd010 	sub	sp, sp, #16
    834c:	e3a03001 	mov	r3, #1
    8350:	e50b300c 	str	r3, [fp, #-12]
    8354:	eb00016e 	bl	8914 <uart_init>
    8358:	e3a03000 	mov	r3, #0
    835c:	e50b3008 	str	r3, [fp, #-8]
    8360:	ea00000c 	b	8398 <kernel_main+0x58>
    8364:	e30c37d0 	movw	r3, #51152	; 0xc7d0
    8368:	e3403000 	movt	r3, #0
    836c:	e51b2008 	ldr	r2, [fp, #-8]
    8370:	e51b1008 	ldr	r1, [fp, #-8]
    8374:	e7831102 	str	r1, [r3, r2, lsl #2]
    8378:	e30c3000 	movw	r3, #49152	; 0xc000
    837c:	e3403000 	movt	r3, #0
    8380:	e51b2008 	ldr	r2, [fp, #-8]
    8384:	e51b1008 	ldr	r1, [fp, #-8]
    8388:	e7831102 	str	r1, [r3, r2, lsl #2]
    838c:	e51b3008 	ldr	r3, [fp, #-8]
    8390:	e2833001 	add	r3, r3, #1
    8394:	e50b3008 	str	r3, [fp, #-8]
    8398:	e51b3008 	ldr	r3, [fp, #-8]
    839c:	e3530f7d 	cmp	r3, #500	; 0x1f4
    83a0:	baffffef 	blt	8364 <kernel_main+0x24>
    83a4:	e30a0000 	movw	r0, #40960	; 0xa000
    83a8:	e3400000 	movt	r0, #0
    83ac:	eb0000b5 	bl	8688 <printk>
    83b0:	eb0001b4 	bl	8a88 <start_countdown>
    83b4:	e30c07d0 	movw	r0, #51152	; 0xc7d0
    83b8:	e3400000 	movt	r0, #0
    83bc:	eb0002c8 	bl	8ee4 <optimized>
    83c0:	eb0001c6 	bl	8ae0 <timer_latch>
    83c4:	e50b0010 	str	r0, [fp, #-16]
    83c8:	e51b1010 	ldr	r1, [fp, #-16]
    83cc:	e30a0024 	movw	r0, #40996	; 0xa024
    83d0:	e3400000 	movt	r0, #0
    83d4:	eb0000ab 	bl	8688 <printk>
    83d8:	e30a002c 	movw	r0, #41004	; 0xa02c
    83dc:	e3400000 	movt	r0, #0
    83e0:	eb0000a8 	bl	8688 <printk>
    83e4:	eb0001a7 	bl	8a88 <start_countdown>
    83e8:	e30c0000 	movw	r0, #49152	; 0xc000
    83ec:	e3400000 	movt	r0, #0
    83f0:	eb000265 	bl	8d8c <unoptimized>
    83f4:	eb0001b9 	bl	8ae0 <timer_latch>
    83f8:	e50b0010 	str	r0, [fp, #-16]
    83fc:	e51b1010 	ldr	r1, [fp, #-16]
    8400:	e30a0024 	movw	r0, #40996	; 0xa024
    8404:	e3400000 	movt	r0, #0
    8408:	eb00009e 	bl	8688 <printk>
    840c:	e3a03000 	mov	r3, #0
    8410:	e50b3008 	str	r3, [fp, #-8]
    8414:	ea000026 	b	84b4 <kernel_main+0x174>
    8418:	e30c37d0 	movw	r3, #51152	; 0xc7d0
    841c:	e3403000 	movt	r3, #0
    8420:	e51b2008 	ldr	r2, [fp, #-8]
    8424:	e7932102 	ldr	r2, [r3, r2, lsl #2]
    8428:	e30c3000 	movw	r3, #49152	; 0xc000
    842c:	e3403000 	movt	r3, #0
    8430:	e51b1008 	ldr	r1, [fp, #-8]
    8434:	e7933101 	ldr	r3, [r3, r1, lsl #2]
    8438:	e1520003 	cmp	r2, r3
    843c:	0a000019 	beq	84a8 <kernel_main+0x168>
    8440:	e51b1008 	ldr	r1, [fp, #-8]
    8444:	e30a0054 	movw	r0, #41044	; 0xa054
    8448:	e3400000 	movt	r0, #0
    844c:	eb00008d 	bl	8688 <printk>
    8450:	e30c37d0 	movw	r3, #51152	; 0xc7d0
    8454:	e3403000 	movt	r3, #0
    8458:	e51b2008 	ldr	r2, [fp, #-8]
    845c:	e7933102 	ldr	r3, [r3, r2, lsl #2]
    8460:	e1a01003 	mov	r1, r3
    8464:	e30a0060 	movw	r0, #41056	; 0xa060
    8468:	e3400000 	movt	r0, #0
    846c:	eb000085 	bl	8688 <printk>
    8470:	e30c3000 	movw	r3, #49152	; 0xc000
    8474:	e3403000 	movt	r3, #0
    8478:	e51b2008 	ldr	r2, [fp, #-8]
    847c:	e7933102 	ldr	r3, [r3, r2, lsl #2]
    8480:	e1a01003 	mov	r1, r3
    8484:	e30a006c 	movw	r0, #41068	; 0xa06c
    8488:	e3400000 	movt	r0, #0
    848c:	eb00007d 	bl	8688 <printk>
    8490:	e30a0078 	movw	r0, #41080	; 0xa078
    8494:	e3400000 	movt	r0, #0
    8498:	eb00007a 	bl	8688 <printk>
    849c:	e3a03000 	mov	r3, #0
    84a0:	e50b300c 	str	r3, [fp, #-12]
    84a4:	ea000005 	b	84c0 <kernel_main+0x180>
    84a8:	e51b3008 	ldr	r3, [fp, #-8]
    84ac:	e2833001 	add	r3, r3, #1
    84b0:	e50b3008 	str	r3, [fp, #-8]
    84b4:	e51b3008 	ldr	r3, [fp, #-8]
    84b8:	e3530f7d 	cmp	r3, #500	; 0x1f4
    84bc:	baffffd5 	blt	8418 <kernel_main+0xd8>
    84c0:	e51b300c 	ldr	r3, [fp, #-12]
    84c4:	e3530000 	cmp	r3, #0
    84c8:	0a000002 	beq	84d8 <kernel_main+0x198>
    84cc:	e30a0094 	movw	r0, #41108	; 0xa094
    84d0:	e3400000 	movt	r0, #0
    84d4:	eb00006b 	bl	8688 <printk>
    84d8:	eb000215 	bl	8d34 <enable_interrupts>
    84dc:	eb000200 	bl	8ce4 <RPI_EnableARMTimerInterrupt>
    84e0:	e3a00000 	mov	r0, #0
    84e4:	eb00018a 	bl	8b14 <timer_start>
    84e8:	eb0001ac 	bl	8ba0 <timer_is_pending>
    84ec:	e1a03000 	mov	r3, r0
    84f0:	e3530001 	cmp	r3, #1
    84f4:	1afffffb 	bne	84e8 <kernel_main+0x1a8>
    84f8:	e30b3408 	movw	r3, #46088	; 0xb408
    84fc:	e3433f00 	movt	r3, #16128	; 0x3f00
    8500:	e5933000 	ldr	r3, [r3]
    8504:	e1a01003 	mov	r1, r3
    8508:	e30a00b0 	movw	r0, #41136	; 0xa0b0
    850c:	e3400000 	movt	r0, #0
    8510:	eb00005c 	bl	8688 <printk>
    8514:	e30b3404 	movw	r3, #46084	; 0xb404
    8518:	e3433f00 	movt	r3, #16128	; 0x3f00
    851c:	e5933000 	ldr	r3, [r3]
    8520:	e1a01003 	mov	r1, r3
    8524:	e30a00cc 	movw	r0, #41164	; 0xa0cc
    8528:	e3400000 	movt	r0, #0
    852c:	eb000055 	bl	8688 <printk>
    8530:	eb00019a 	bl	8ba0 <timer_is_pending>
    8534:	e1a03000 	mov	r3, r0
    8538:	e1a01003 	mov	r1, r3
    853c:	e30a00e0 	movw	r0, #41184	; 0xa0e0
    8540:	e3400000 	movt	r0, #0
    8544:	eb00004f 	bl	8688 <printk>
    8548:	e3a03cb2 	mov	r3, #45568	; 0xb200
    854c:	e3433f00 	movt	r3, #16128	; 0x3f00
    8550:	e5933000 	ldr	r3, [r3]
    8554:	e1a01003 	mov	r1, r3
    8558:	e30a00f4 	movw	r0, #41204	; 0xa0f4
    855c:	e3400000 	movt	r0, #0
    8560:	eb000048 	bl	8688 <printk>
    8564:	e3a00064 	mov	r0, #100	; 0x64
    8568:	eb0001e5 	bl	8d04 <delay_cycles>
    856c:	eaffffdd 	b	84e8 <kernel_main+0x1a8>

00008570 <printnumk>:
    8570:	e92d4800 	push	{fp, lr}
    8574:	e28db004 	add	fp, sp, #4
    8578:	e24dd060 	sub	sp, sp, #96	; 0x60
    857c:	e1a01000 	mov	r1, r0
    8580:	e14b26f4 	strd	r2, [fp, #-100]	; 0xffffff9c
    8584:	e1a03001 	mov	r3, r1
    8588:	e54b3055 	strb	r3, [fp, #-85]	; 0xffffffab
    858c:	e3a03000 	mov	r3, #0
    8590:	e50b3008 	str	r3, [fp, #-8]
    8594:	e3a03000 	mov	r3, #0
    8598:	e50b3010 	str	r3, [fp, #-16]
    859c:	e14b26d4 	ldrd	r2, [fp, #-100]	; 0xffffff9c
    85a0:	e1923003 	orrs	r3, r2, r3
    85a4:	1a00001c 	bne	861c <printnumk+0xac>
    85a8:	e3a00030 	mov	r0, #48	; 0x30
    85ac:	eb00010e 	bl	89ec <uart_put_byte>
    85b0:	ea000031 	b	867c <printnumk+0x10c>
    85b4:	e55b2055 	ldrb	r2, [fp, #-85]	; 0xffffffab
    85b8:	e3a03000 	mov	r3, #0
    85bc:	e14b06d4 	ldrd	r0, [fp, #-100]	; 0xffffff9c
    85c0:	eb0002df 	bl	9144 <__aeabi_uldivmod>
    85c4:	e1a03002 	mov	r3, r2
    85c8:	e50b3010 	str	r3, [fp, #-16]
    85cc:	e30b3004 	movw	r3, #45060	; 0xb004
    85d0:	e3403000 	movt	r3, #0
    85d4:	e51b2010 	ldr	r2, [fp, #-16]
    85d8:	e0833002 	add	r3, r3, r2
    85dc:	e5d31000 	ldrb	r1, [r3]
    85e0:	e24b2054 	sub	r2, fp, #84	; 0x54
    85e4:	e51b3008 	ldr	r3, [fp, #-8]
    85e8:	e0823003 	add	r3, r2, r3
    85ec:	e1a02001 	mov	r2, r1
    85f0:	e5c32000 	strb	r2, [r3]
    85f4:	e55b2055 	ldrb	r2, [fp, #-85]	; 0xffffffab
    85f8:	e3a03000 	mov	r3, #0
    85fc:	e14b06d4 	ldrd	r0, [fp, #-100]	; 0xffffff9c
    8600:	eb0002cf 	bl	9144 <__aeabi_uldivmod>
    8604:	e1a02000 	mov	r2, r0
    8608:	e1a03001 	mov	r3, r1
    860c:	e14b26f4 	strd	r2, [fp, #-100]	; 0xffffff9c
    8610:	e51b3008 	ldr	r3, [fp, #-8]
    8614:	e2833001 	add	r3, r3, #1
    8618:	e50b3008 	str	r3, [fp, #-8]
    861c:	e14b26d4 	ldrd	r2, [fp, #-100]	; 0xffffff9c
    8620:	e1923003 	orrs	r3, r2, r3
    8624:	1affffe2 	bne	85b4 <printnumk+0x44>
    8628:	e3a03000 	mov	r3, #0
    862c:	e50b300c 	str	r3, [fp, #-12]
    8630:	ea00000d 	b	866c <printnumk+0xfc>
    8634:	e51b3008 	ldr	r3, [fp, #-8]
    8638:	e2432001 	sub	r2, r3, #1
    863c:	e51b300c 	ldr	r3, [fp, #-12]
    8640:	e0423003 	sub	r3, r2, r3
    8644:	e24b2004 	sub	r2, fp, #4
    8648:	e0823003 	add	r3, r2, r3
    864c:	e5533050 	ldrb	r3, [r3, #-80]	; 0xffffffb0
    8650:	e54b3011 	strb	r3, [fp, #-17]	; 0xffffffef
    8654:	e55b3011 	ldrb	r3, [fp, #-17]	; 0xffffffef
    8658:	e1a00003 	mov	r0, r3
    865c:	eb0000e2 	bl	89ec <uart_put_byte>
    8660:	e51b300c 	ldr	r3, [fp, #-12]
    8664:	e2833001 	add	r3, r3, #1
    8668:	e50b300c 	str	r3, [fp, #-12]
    866c:	e51b200c 	ldr	r2, [fp, #-12]
    8670:	e51b3008 	ldr	r3, [fp, #-8]
    8674:	e1520003 	cmp	r2, r3
    8678:	baffffed 	blt	8634 <printnumk+0xc4>
    867c:	e320f000 	nop	{0}
    8680:	e24bd004 	sub	sp, fp, #4
    8684:	e8bd8800 	pop	{fp, pc}

00008688 <printk>:
    8688:	e92d000f 	push	{r0, r1, r2, r3}
    868c:	e92d4800 	push	{fp, lr}
    8690:	e28db004 	add	fp, sp, #4
    8694:	e24dd020 	sub	sp, sp, #32
    8698:	e28b3008 	add	r3, fp, #8
    869c:	e50b3024 	str	r3, [fp, #-36]	; 0xffffffdc
    86a0:	ea000091 	b	88ec <printk+0x264>
    86a4:	e59b3004 	ldr	r3, [fp, #4]
    86a8:	e5d33000 	ldrb	r3, [r3]
    86ac:	e3530025 	cmp	r3, #37	; 0x25
    86b0:	1a000086 	bne	88d0 <printk+0x248>
    86b4:	e59b3004 	ldr	r3, [fp, #4]
    86b8:	e2833001 	add	r3, r3, #1
    86bc:	e58b3004 	str	r3, [fp, #4]
    86c0:	e59b3004 	ldr	r3, [fp, #4]
    86c4:	e5d33000 	ldrb	r3, [r3]
    86c8:	e353006f 	cmp	r3, #111	; 0x6f
    86cc:	1a00000c 	bne	8704 <printk+0x7c>
    86d0:	e51b3024 	ldr	r3, [fp, #-36]	; 0xffffffdc
    86d4:	e2832004 	add	r2, r3, #4
    86d8:	e50b2024 	str	r2, [fp, #-36]	; 0xffffffdc
    86dc:	e5933000 	ldr	r3, [r3]
    86e0:	e50b3020 	str	r3, [fp, #-32]	; 0xffffffe0
    86e4:	e3a00030 	mov	r0, #48	; 0x30
    86e8:	eb0000bf 	bl	89ec <uart_put_byte>
    86ec:	e51b3020 	ldr	r3, [fp, #-32]	; 0xffffffe0
    86f0:	e1a02003 	mov	r2, r3
    86f4:	e1a03fc2 	asr	r3, r2, #31
    86f8:	e3a00008 	mov	r0, #8
    86fc:	ebffff9b 	bl	8570 <printnumk>
    8700:	ea000076 	b	88e0 <printk+0x258>
    8704:	e59b3004 	ldr	r3, [fp, #4]
    8708:	e5d33000 	ldrb	r3, [r3]
    870c:	e3530064 	cmp	r3, #100	; 0x64
    8710:	1a000012 	bne	8760 <printk+0xd8>
    8714:	e51b3024 	ldr	r3, [fp, #-36]	; 0xffffffdc
    8718:	e2832004 	add	r2, r3, #4
    871c:	e50b2024 	str	r2, [fp, #-36]	; 0xffffffdc
    8720:	e5933000 	ldr	r3, [r3]
    8724:	e50b300c 	str	r3, [fp, #-12]
    8728:	e51b300c 	ldr	r3, [fp, #-12]
    872c:	e3530000 	cmp	r3, #0
    8730:	aa000004 	bge	8748 <printk+0xc0>
    8734:	e3a0002d 	mov	r0, #45	; 0x2d
    8738:	eb0000ab 	bl	89ec <uart_put_byte>
    873c:	e51b300c 	ldr	r3, [fp, #-12]
    8740:	e2633000 	rsb	r3, r3, #0
    8744:	e50b300c 	str	r3, [fp, #-12]
    8748:	e51b300c 	ldr	r3, [fp, #-12]
    874c:	e1a02003 	mov	r2, r3
    8750:	e1a03fc2 	asr	r3, r2, #31
    8754:	e3a0000a 	mov	r0, #10
    8758:	ebffff84 	bl	8570 <printnumk>
    875c:	ea00005f 	b	88e0 <printk+0x258>
    8760:	e59b3004 	ldr	r3, [fp, #4]
    8764:	e5d33000 	ldrb	r3, [r3]
    8768:	e3530075 	cmp	r3, #117	; 0x75
    876c:	1a00000a 	bne	879c <printk+0x114>
    8770:	e51b3024 	ldr	r3, [fp, #-36]	; 0xffffffdc
    8774:	e2832004 	add	r2, r3, #4
    8778:	e50b2024 	str	r2, [fp, #-36]	; 0xffffffdc
    877c:	e5933000 	ldr	r3, [r3]
    8780:	e50b301c 	str	r3, [fp, #-28]	; 0xffffffe4
    8784:	e51b301c 	ldr	r3, [fp, #-28]	; 0xffffffe4
    8788:	e1a02003 	mov	r2, r3
    878c:	e1a03fc2 	asr	r3, r2, #31
    8790:	e3a0000a 	mov	r0, #10
    8794:	ebffff75 	bl	8570 <printnumk>
    8798:	ea000050 	b	88e0 <printk+0x258>
    879c:	e59b3004 	ldr	r3, [fp, #4]
    87a0:	e5d33000 	ldrb	r3, [r3]
    87a4:	e3530078 	cmp	r3, #120	; 0x78
    87a8:	1a00000e 	bne	87e8 <printk+0x160>
    87ac:	e51b3024 	ldr	r3, [fp, #-36]	; 0xffffffdc
    87b0:	e2832004 	add	r2, r3, #4
    87b4:	e50b2024 	str	r2, [fp, #-36]	; 0xffffffdc
    87b8:	e5933000 	ldr	r3, [r3]
    87bc:	e50b3018 	str	r3, [fp, #-24]	; 0xffffffe8
    87c0:	e3a00030 	mov	r0, #48	; 0x30
    87c4:	eb000088 	bl	89ec <uart_put_byte>
    87c8:	e3a00078 	mov	r0, #120	; 0x78
    87cc:	eb000086 	bl	89ec <uart_put_byte>
    87d0:	e51b3018 	ldr	r3, [fp, #-24]	; 0xffffffe8
    87d4:	e1a02003 	mov	r2, r3
    87d8:	e1a03fc2 	asr	r3, r2, #31
    87dc:	e3a00010 	mov	r0, #16
    87e0:	ebffff62 	bl	8570 <printnumk>
    87e4:	ea00003d 	b	88e0 <printk+0x258>
    87e8:	e59b3004 	ldr	r3, [fp, #4]
    87ec:	e5d33000 	ldrb	r3, [r3]
    87f0:	e3530063 	cmp	r3, #99	; 0x63
    87f4:	1a000009 	bne	8820 <printk+0x198>
    87f8:	e51b3024 	ldr	r3, [fp, #-36]	; 0xffffffdc
    87fc:	e2832004 	add	r2, r3, #4
    8800:	e50b2024 	str	r2, [fp, #-36]	; 0xffffffdc
    8804:	e5933000 	ldr	r3, [r3]
    8808:	e50b3014 	str	r3, [fp, #-20]	; 0xffffffec
    880c:	e51b3014 	ldr	r3, [fp, #-20]	; 0xffffffec
    8810:	e6ef3073 	uxtb	r3, r3
    8814:	e1a00003 	mov	r0, r3
    8818:	eb000073 	bl	89ec <uart_put_byte>
    881c:	ea00002f 	b	88e0 <printk+0x258>
    8820:	e59b3004 	ldr	r3, [fp, #4]
    8824:	e5d33000 	ldrb	r3, [r3]
    8828:	e3530073 	cmp	r3, #115	; 0x73
    882c:	1a000011 	bne	8878 <printk+0x1f0>
    8830:	e51b3024 	ldr	r3, [fp, #-36]	; 0xffffffdc
    8834:	e2832004 	add	r2, r3, #4
    8838:	e50b2024 	str	r2, [fp, #-36]	; 0xffffffdc
    883c:	e5933000 	ldr	r3, [r3]
    8840:	e50b3008 	str	r3, [fp, #-8]
    8844:	ea000006 	b	8864 <printk+0x1dc>
    8848:	e51b3008 	ldr	r3, [fp, #-8]
    884c:	e5d33000 	ldrb	r3, [r3]
    8850:	e1a00003 	mov	r0, r3
    8854:	eb000064 	bl	89ec <uart_put_byte>
    8858:	e51b3008 	ldr	r3, [fp, #-8]
    885c:	e2833001 	add	r3, r3, #1
    8860:	e50b3008 	str	r3, [fp, #-8]
    8864:	e51b3008 	ldr	r3, [fp, #-8]
    8868:	e5d33000 	ldrb	r3, [r3]
    886c:	e3530000 	cmp	r3, #0
    8870:	1afffff4 	bne	8848 <printk+0x1c0>
    8874:	ea000019 	b	88e0 <printk+0x258>
    8878:	e59b3004 	ldr	r3, [fp, #4]
    887c:	e5d33000 	ldrb	r3, [r3]
    8880:	e3530070 	cmp	r3, #112	; 0x70
    8884:	1a00000e 	bne	88c4 <printk+0x23c>
    8888:	e51b3024 	ldr	r3, [fp, #-36]	; 0xffffffdc
    888c:	e2832004 	add	r2, r3, #4
    8890:	e50b2024 	str	r2, [fp, #-36]	; 0xffffffdc
    8894:	e5933000 	ldr	r3, [r3]
    8898:	e50b3010 	str	r3, [fp, #-16]
    889c:	e3a00030 	mov	r0, #48	; 0x30
    88a0:	eb000051 	bl	89ec <uart_put_byte>
    88a4:	e3a00078 	mov	r0, #120	; 0x78
    88a8:	eb00004f 	bl	89ec <uart_put_byte>
    88ac:	e51b3010 	ldr	r3, [fp, #-16]
    88b0:	e1a02003 	mov	r2, r3
    88b4:	e1a03fc2 	asr	r3, r2, #31
    88b8:	e3a00010 	mov	r0, #16
    88bc:	ebffff2b 	bl	8570 <printnumk>
    88c0:	ea000006 	b	88e0 <printk+0x258>
    88c4:	e3a00025 	mov	r0, #37	; 0x25
    88c8:	eb000047 	bl	89ec <uart_put_byte>
    88cc:	ea000003 	b	88e0 <printk+0x258>
    88d0:	e59b3004 	ldr	r3, [fp, #4]
    88d4:	e5d33000 	ldrb	r3, [r3]
    88d8:	e1a00003 	mov	r0, r3
    88dc:	eb000042 	bl	89ec <uart_put_byte>
    88e0:	e59b3004 	ldr	r3, [fp, #4]
    88e4:	e2833001 	add	r3, r3, #1
    88e8:	e58b3004 	str	r3, [fp, #4]
    88ec:	e59b3004 	ldr	r3, [fp, #4]
    88f0:	e5d33000 	ldrb	r3, [r3]
    88f4:	e3530000 	cmp	r3, #0
    88f8:	1affff69 	bne	86a4 <printk+0x1c>
    88fc:	e3a03000 	mov	r3, #0
    8900:	e1a00003 	mov	r0, r3
    8904:	e24bd004 	sub	sp, fp, #4
    8908:	e8bd4800 	pop	{fp, lr}
    890c:	e28dd010 	add	sp, sp, #16
    8910:	e12fff1e 	bx	lr

00008914 <uart_init>:
    8914:	e92d4800 	push	{fp, lr}
    8918:	e28db004 	add	fp, sp, #4
    891c:	e3a01002 	mov	r1, #2
    8920:	e3a0000f 	mov	r0, #15
    8924:	ebfffdbb 	bl	8018 <gpio_config>
    8928:	e3a01002 	mov	r1, #2
    892c:	e3a0000e 	mov	r0, #14
    8930:	ebfffdb8 	bl	8018 <gpio_config>
    8934:	e3a01000 	mov	r1, #0
    8938:	e3a0000f 	mov	r0, #15
    893c:	ebfffe40 	bl	8244 <gpio_set_pull>
    8940:	e3a01000 	mov	r1, #0
    8944:	e3a0000e 	mov	r0, #14
    8948:	ebfffe3d 	bl	8244 <gpio_set_pull>
    894c:	e3053004 	movw	r3, #20484	; 0x5004
    8950:	e3433f21 	movt	r3, #16161	; 0x3f21
    8954:	e3a02001 	mov	r2, #1
    8958:	e5832000 	str	r2, [r3]
    895c:	e3053060 	movw	r3, #20576	; 0x5060
    8960:	e3433f21 	movt	r3, #16161	; 0x3f21
    8964:	e3a02000 	mov	r2, #0
    8968:	e5832000 	str	r2, [r3]
    896c:	e3053044 	movw	r3, #20548	; 0x5044
    8970:	e3433f21 	movt	r3, #16161	; 0x3f21
    8974:	e3a02000 	mov	r2, #0
    8978:	e5832000 	str	r2, [r3]
    897c:	e305304c 	movw	r3, #20556	; 0x504c
    8980:	e3433f21 	movt	r3, #16161	; 0x3f21
    8984:	e3a02003 	mov	r2, #3
    8988:	e5832000 	str	r2, [r3]
    898c:	e3053068 	movw	r3, #20584	; 0x5068
    8990:	e3433f21 	movt	r3, #16161	; 0x3f21
    8994:	e300210e 	movw	r2, #270	; 0x10e
    8998:	e5832000 	str	r2, [r3]
    899c:	e3053060 	movw	r3, #20576	; 0x5060
    89a0:	e3433f21 	movt	r3, #16161	; 0x3f21
    89a4:	e3a02003 	mov	r2, #3
    89a8:	e5832000 	str	r2, [r3]
    89ac:	e320f000 	nop	{0}
    89b0:	e8bd8800 	pop	{fp, pc}

000089b4 <uart_close>:
    89b4:	e52db004 	push	{fp}		; (str fp, [sp, #-4]!)
    89b8:	e28db000 	add	fp, sp, #0
    89bc:	e3053060 	movw	r3, #20576	; 0x5060
    89c0:	e3433f21 	movt	r3, #16161	; 0x3f21
    89c4:	e3a02003 	mov	r2, #3
    89c8:	e5832000 	str	r2, [r3]
    89cc:	e3053004 	movw	r3, #20484	; 0x5004
    89d0:	e3433f21 	movt	r3, #16161	; 0x3f21
    89d4:	e3a02000 	mov	r2, #0
    89d8:	e5832000 	str	r2, [r3]
    89dc:	e320f000 	nop	{0}
    89e0:	e28bd000 	add	sp, fp, #0
    89e4:	e49db004 	pop	{fp}		; (ldr fp, [sp], #4)
    89e8:	e12fff1e 	bx	lr

000089ec <uart_put_byte>:
    89ec:	e52db004 	push	{fp}		; (str fp, [sp, #-4]!)
    89f0:	e28db000 	add	fp, sp, #0
    89f4:	e24dd00c 	sub	sp, sp, #12
    89f8:	e1a03000 	mov	r3, r0
    89fc:	e54b3005 	strb	r3, [fp, #-5]
    8a00:	e3053054 	movw	r3, #20564	; 0x5054
    8a04:	e3433f21 	movt	r3, #16161	; 0x3f21
    8a08:	e5933000 	ldr	r3, [r3]
    8a0c:	e2033020 	and	r3, r3, #32
    8a10:	e3530020 	cmp	r3, #32
    8a14:	0a000000 	beq	8a1c <uart_put_byte+0x30>
    8a18:	eafffff8 	b	8a00 <uart_put_byte+0x14>
    8a1c:	e320f000 	nop	{0}
    8a20:	e3053040 	movw	r3, #20544	; 0x5040
    8a24:	e3433f21 	movt	r3, #16161	; 0x3f21
    8a28:	e55b2005 	ldrb	r2, [fp, #-5]
    8a2c:	e5832000 	str	r2, [r3]
    8a30:	e320f000 	nop	{0}
    8a34:	e28bd000 	add	sp, fp, #0
    8a38:	e49db004 	pop	{fp}		; (ldr fp, [sp], #4)
    8a3c:	e12fff1e 	bx	lr

00008a40 <uart_get_byte>:
    8a40:	e52db004 	push	{fp}		; (str fp, [sp, #-4]!)
    8a44:	e28db000 	add	fp, sp, #0
    8a48:	e3053054 	movw	r3, #20564	; 0x5054
    8a4c:	e3433f21 	movt	r3, #16161	; 0x3f21
    8a50:	e5933000 	ldr	r3, [r3]
    8a54:	e2033001 	and	r3, r3, #1
    8a58:	e3530001 	cmp	r3, #1
    8a5c:	0a000000 	beq	8a64 <uart_get_byte+0x24>
    8a60:	eafffff8 	b	8a48 <uart_get_byte+0x8>
    8a64:	e320f000 	nop	{0}
    8a68:	e3053040 	movw	r3, #20544	; 0x5040
    8a6c:	e3433f21 	movt	r3, #16161	; 0x3f21
    8a70:	e5933000 	ldr	r3, [r3]
    8a74:	e6ef3073 	uxtb	r3, r3
    8a78:	e1a00003 	mov	r0, r3
    8a7c:	e28bd000 	add	sp, fp, #0
    8a80:	e49db004 	pop	{fp}		; (ldr fp, [sp], #4)
    8a84:	e12fff1e 	bx	lr

00008a88 <start_countdown>:
    8a88:	e52db004 	push	{fp}		; (str fp, [sp, #-4]!)
    8a8c:	e28db000 	add	fp, sp, #0
    8a90:	e3a03b2d 	mov	r3, #46080	; 0xb400
    8a94:	e3433f00 	movt	r3, #16128	; 0x3f00
    8a98:	e3e02000 	mvn	r2, #0
    8a9c:	e5832000 	str	r2, [r3]
    8aa0:	e30b3418 	movw	r3, #46104	; 0xb418
    8aa4:	e3433f00 	movt	r3, #16128	; 0x3f00
    8aa8:	e3e02000 	mvn	r2, #0
    8aac:	e5832000 	str	r2, [r3]
    8ab0:	e30b3408 	movw	r3, #46088	; 0xb408
    8ab4:	e3433f00 	movt	r3, #16128	; 0x3f00
    8ab8:	e3a02082 	mov	r2, #130	; 0x82
    8abc:	e5832000 	str	r2, [r3]
    8ac0:	e30b341c 	movw	r3, #46108	; 0xb41c
    8ac4:	e3433f00 	movt	r3, #16128	; 0x3f00
    8ac8:	e3a02001 	mov	r2, #1
    8acc:	e5832000 	str	r2, [r3]
    8ad0:	e320f000 	nop	{0}
    8ad4:	e28bd000 	add	sp, fp, #0
    8ad8:	e49db004 	pop	{fp}		; (ldr fp, [sp], #4)
    8adc:	e12fff1e 	bx	lr

00008ae0 <timer_latch>:
    8ae0:	e52db004 	push	{fp}		; (str fp, [sp, #-4]!)
    8ae4:	e28db000 	add	fp, sp, #0
    8ae8:	e3a03b2d 	mov	r3, #46080	; 0xb400
    8aec:	e3433f00 	movt	r3, #16128	; 0x3f00
    8af0:	e5932000 	ldr	r2, [r3]
    8af4:	e30b3404 	movw	r3, #46084	; 0xb404
    8af8:	e3433f00 	movt	r3, #16128	; 0x3f00
    8afc:	e5933000 	ldr	r3, [r3]
    8b00:	e0423003 	sub	r3, r2, r3
    8b04:	e1a00003 	mov	r0, r3
    8b08:	e28bd000 	add	sp, fp, #0
    8b0c:	e49db004 	pop	{fp}		; (ldr fp, [sp], #4)
    8b10:	e12fff1e 	bx	lr

00008b14 <timer_start>:
    8b14:	e92d4800 	push	{fp, lr}
    8b18:	e28db004 	add	fp, sp, #4
    8b1c:	e24dd010 	sub	sp, sp, #16
    8b20:	e50b0010 	str	r0, [fp, #-16]
    8b24:	e51b1010 	ldr	r1, [fp, #-16]
    8b28:	e30b0280 	movw	r0, #45696	; 0xb280
    8b2c:	e3400ee6 	movt	r0, #3814	; 0xee6
    8b30:	eb000130 	bl	8ff8 <__divsi3>
    8b34:	e1a03000 	mov	r3, r0
    8b38:	e50b3008 	str	r3, [fp, #-8]
    8b3c:	e3a03b2d 	mov	r3, #46080	; 0xb400
    8b40:	e3433f00 	movt	r3, #16128	; 0x3f00
    8b44:	e51b2008 	ldr	r2, [fp, #-8]
    8b48:	e5832000 	str	r2, [r3]
    8b4c:	e51b1008 	ldr	r1, [fp, #-8]
    8b50:	e30a0114 	movw	r0, #41236	; 0xa114
    8b54:	e3400000 	movt	r0, #0
    8b58:	ebfffeca 	bl	8688 <printk>
    8b5c:	e30b3408 	movw	r3, #46088	; 0xb408
    8b60:	e3433f00 	movt	r3, #16128	; 0x3f00
    8b64:	e3a020a2 	mov	r2, #162	; 0xa2
    8b68:	e5832000 	str	r2, [r3]
    8b6c:	e320f000 	nop	{0}
    8b70:	e24bd004 	sub	sp, fp, #4
    8b74:	e8bd8800 	pop	{fp, pc}

00008b78 <timer_stop>:
    8b78:	e52db004 	push	{fp}		; (str fp, [sp, #-4]!)
    8b7c:	e28db000 	add	fp, sp, #0
    8b80:	e30b3408 	movw	r3, #46088	; 0xb408
    8b84:	e3433f00 	movt	r3, #16128	; 0x3f00
    8b88:	e3a02000 	mov	r2, #0
    8b8c:	e5832000 	str	r2, [r3]
    8b90:	e320f000 	nop	{0}
    8b94:	e28bd000 	add	sp, fp, #0
    8b98:	e49db004 	pop	{fp}		; (ldr fp, [sp], #4)
    8b9c:	e12fff1e 	bx	lr

00008ba0 <timer_is_pending>:
    8ba0:	e52db004 	push	{fp}		; (str fp, [sp, #-4]!)
    8ba4:	e28db000 	add	fp, sp, #0
    8ba8:	e30b3414 	movw	r3, #46100	; 0xb414
    8bac:	e3433f00 	movt	r3, #16128	; 0x3f00
    8bb0:	e5933000 	ldr	r3, [r3]
    8bb4:	e2033001 	and	r3, r3, #1
    8bb8:	e1a00003 	mov	r0, r3
    8bbc:	e28bd000 	add	sp, fp, #0
    8bc0:	e49db004 	pop	{fp}		; (ldr fp, [sp], #4)
    8bc4:	e12fff1e 	bx	lr

00008bc8 <timer_clear_pending>:
    8bc8:	e52db004 	push	{fp}		; (str fp, [sp, #-4]!)
    8bcc:	e28db000 	add	fp, sp, #0
    8bd0:	e30b340c 	movw	r3, #46092	; 0xb40c
    8bd4:	e3433f00 	movt	r3, #16128	; 0x3f00
    8bd8:	e3a02000 	mov	r2, #0
    8bdc:	e5832000 	str	r2, [r3]
    8be0:	e320f000 	nop	{0}
    8be4:	e28bd000 	add	sp, fp, #0
    8be8:	e49db004 	pop	{fp}		; (ldr fp, [sp], #4)
    8bec:	e12fff1e 	bx	lr

00008bf0 <timer_value>:
    8bf0:	e52db004 	push	{fp}		; (str fp, [sp, #-4]!)
    8bf4:	e28db000 	add	fp, sp, #0
    8bf8:	e3a03b2d 	mov	r3, #46080	; 0xb400
    8bfc:	e3433f00 	movt	r3, #16128	; 0x3f00
    8c00:	e5933000 	ldr	r3, [r3]
    8c04:	e1a00003 	mov	r0, r3
    8c08:	e28bd000 	add	sp, fp, #0
    8c0c:	e49db004 	pop	{fp}		; (ldr fp, [sp], #4)
    8c10:	e12fff1e 	bx	lr

00008c14 <reset_vector>:
    8c14:	e52db004 	push	{fp}		; (str fp, [sp, #-4]!)
    8c18:	e28db000 	add	fp, sp, #0
    8c1c:	e320f000 	nop	{0}
    8c20:	e28bd000 	add	sp, fp, #0
    8c24:	e49db004 	pop	{fp}		; (ldr fp, [sp], #4)
    8c28:	e25ef004 	subs	pc, lr, #4

00008c2c <undefined_instruction_vector>:
    8c2c:	e92d581f 	push	{r0, r1, r2, r3, r4, fp, ip, lr}
    8c30:	e28db01c 	add	fp, sp, #28
    8c34:	e30a0128 	movw	r0, #41256	; 0xa128
    8c38:	e3400000 	movt	r0, #0
    8c3c:	ebfffe91 	bl	8688 <printk>
    8c40:	eafffffb 	b	8c34 <undefined_instruction_vector+0x8>

00008c44 <software_interrupt_vector>:
    8c44:	e92d581f 	push	{r0, r1, r2, r3, r4, fp, ip, lr}
    8c48:	e28db01c 	add	fp, sp, #28
    8c4c:	e30a0148 	movw	r0, #41288	; 0xa148
    8c50:	e3400000 	movt	r0, #0
    8c54:	ebfffe8b 	bl	8688 <printk>
    8c58:	eafffffb 	b	8c4c <software_interrupt_vector+0x8>

00008c5c <prefetch_abort_vector>:
    8c5c:	e52db004 	push	{fp}		; (str fp, [sp, #-4]!)
    8c60:	e28db000 	add	fp, sp, #0
    8c64:	e320f000 	nop	{0}
    8c68:	e28bd000 	add	sp, fp, #0
    8c6c:	e49db004 	pop	{fp}		; (ldr fp, [sp], #4)
    8c70:	e25ef004 	subs	pc, lr, #4

00008c74 <data_abort_vector>:
    8c74:	e52db004 	push	{fp}		; (str fp, [sp, #-4]!)
    8c78:	e28db000 	add	fp, sp, #0
    8c7c:	e320f000 	nop	{0}
    8c80:	e28bd000 	add	sp, fp, #0
    8c84:	e49db004 	pop	{fp}		; (ldr fp, [sp], #4)
    8c88:	e25ef004 	subs	pc, lr, #4

00008c8c <irq_asm_handler>:
    8c8c:	e24ee004 	sub	lr, lr, #4
    8c90:	e92d581f 	push	{r0, r1, r2, r3, r4, fp, ip, lr}
    8c94:	e28db01c 	add	fp, sp, #28
    8c98:	e30a0164 	movw	r0, #41316	; 0xa164
    8c9c:	e3400000 	movt	r0, #0
    8ca0:	ebfffe78 	bl	8688 <printk>
    8ca4:	e320f000 	nop	{0}
    8ca8:	e24bd01c 	sub	sp, fp, #28
    8cac:	e8fd981f 	ldm	sp!, {r0, r1, r2, r3, r4, fp, ip, pc}^

00008cb0 <fast_interrupt_vector>:
    8cb0:	e24db004 	sub	fp, sp, #4
    8cb4:	e320f000 	nop	{0}
    8cb8:	e28bd004 	add	sp, fp, #4
    8cbc:	e25ef004 	subs	pc, lr, #4

00008cc0 <RPI_GetIrqController>:
    8cc0:	e52db004 	push	{fp}		; (str fp, [sp, #-4]!)
    8cc4:	e28db000 	add	fp, sp, #0
    8cc8:	e30b3018 	movw	r3, #45080	; 0xb018
    8ccc:	e3403000 	movt	r3, #0
    8cd0:	e5933000 	ldr	r3, [r3]
    8cd4:	e1a00003 	mov	r0, r3
    8cd8:	e28bd000 	add	sp, fp, #0
    8cdc:	e49db004 	pop	{fp}		; (ldr fp, [sp], #4)
    8ce0:	e12fff1e 	bx	lr

00008ce4 <RPI_EnableARMTimerInterrupt>:
    8ce4:	e92d4800 	push	{fp, lr}
    8ce8:	e28db004 	add	fp, sp, #4
    8cec:	ebfffff3 	bl	8cc0 <RPI_GetIrqController>
    8cf0:	e1a03000 	mov	r3, r0
    8cf4:	e3a02001 	mov	r2, #1
    8cf8:	e5832018 	str	r2, [r3, #24]
    8cfc:	e320f000 	nop	{0}
    8d00:	e8bd8800 	pop	{fp, pc}

00008d04 <delay_cycles>:
    8d04:	e2500001 	subs	r0, r0, #1
    8d08:	1afffffd 	bne	8d04 <delay_cycles>
    8d0c:	e1a0f00e 	mov	pc, lr

00008d10 <read_cpsr>:
    8d10:	e10f0000 	mrs	r0, CPSR
    8d14:	e1a0f00e 	mov	pc, lr

00008d18 <write_cpsr>:
    8d18:	e129f000 	msr	CPSR_fc, r0
    8d1c:	e1a0f00e 	mov	pc, lr

00008d20 <disable_interrupts>:
    8d20:	e10f0000 	mrs	r0, CPSR
    8d24:	e3a01d07 	mov	r1, #448	; 0x1c0
    8d28:	e1800001 	orr	r0, r0, r1
    8d2c:	e129f000 	msr	CPSR_fc, r0
    8d30:	e1a0f00e 	mov	pc, lr

00008d34 <enable_interrupts>:
    8d34:	e10f0000 	mrs	r0, CPSR
    8d38:	e3a01d07 	mov	r1, #448	; 0x1c0
    8d3c:	e1c00001 	bic	r0, r0, r1
    8d40:	e129f000 	msr	CPSR_fc, r0
    8d44:	e1a0f00e 	mov	pc, lr

00008d48 <func2>:
    8d48:	e52db004 	push	{fp}		; (str fp, [sp, #-4]!)
    8d4c:	e28db000 	add	fp, sp, #0
    8d50:	e24dd00c 	sub	sp, sp, #12
    8d54:	e50b0008 	str	r0, [fp, #-8]
    8d58:	e50b100c 	str	r1, [fp, #-12]
    8d5c:	e51b200c 	ldr	r2, [fp, #-12]
    8d60:	e1a03002 	mov	r3, r2
    8d64:	e1a03103 	lsl	r3, r3, #2
    8d68:	e0833002 	add	r3, r3, r2
    8d6c:	e1a02103 	lsl	r2, r3, #2
    8d70:	e0832002 	add	r2, r3, r2
    8d74:	e51b3008 	ldr	r3, [fp, #-8]
    8d78:	e0823003 	add	r3, r2, r3
    8d7c:	e1a00003 	mov	r0, r3
    8d80:	e24bd000 	sub	sp, fp, #0
    8d84:	e49db004 	pop	{fp}		; (ldr fp, [sp], #4)
    8d88:	e12fff1e 	bx	lr

00008d8c <unoptimized>:
    8d8c:	e92d4870 	push	{r4, r5, r6, fp, lr}
    8d90:	e28db010 	add	fp, sp, #16
    8d94:	e24dd01c 	sub	sp, sp, #28
    8d98:	e50b0028 	str	r0, [fp, #-40]	; 0xffffffd8
    8d9c:	e3a03000 	mov	r3, #0
    8da0:	e50b3018 	str	r3, [fp, #-24]	; 0xffffffe8
    8da4:	ea000037 	b	8e88 <unoptimized+0xfc>
    8da8:	e3a03011 	mov	r3, #17
    8dac:	e50b3020 	str	r3, [fp, #-32]	; 0xffffffe0
    8db0:	e3a03000 	mov	r3, #0
    8db4:	e50b301c 	str	r3, [fp, #-28]	; 0xffffffe4
    8db8:	ea00002c 	b	8e70 <unoptimized+0xe4>
    8dbc:	e3a03002 	mov	r3, #2
    8dc0:	e50b3024 	str	r3, [fp, #-36]	; 0xffffffdc
    8dc4:	e51b3024 	ldr	r3, [fp, #-36]	; 0xffffffdc
    8dc8:	e2833001 	add	r3, r3, #1
    8dcc:	e50b3024 	str	r3, [fp, #-36]	; 0xffffffdc
    8dd0:	e51b3024 	ldr	r3, [fp, #-36]	; 0xffffffdc
    8dd4:	e2432002 	sub	r2, r3, #2
    8dd8:	e1a03002 	mov	r3, r2
    8ddc:	e1a03083 	lsl	r3, r3, #1
    8de0:	e0833002 	add	r3, r3, r2
    8de4:	e50b3024 	str	r3, [fp, #-36]	; 0xffffffdc
    8de8:	e51b301c 	ldr	r3, [fp, #-28]	; 0xffffffe4
    8dec:	e1a03103 	lsl	r3, r3, #2
    8df0:	e51b2028 	ldr	r2, [fp, #-40]	; 0xffffffd8
    8df4:	e0824003 	add	r4, r2, r3
    8df8:	e51b301c 	ldr	r3, [fp, #-28]	; 0xffffffe4
    8dfc:	e1a03103 	lsl	r3, r3, #2
    8e00:	e51b2028 	ldr	r2, [fp, #-40]	; 0xffffffd8
    8e04:	e0823003 	add	r3, r2, r3
    8e08:	e5933000 	ldr	r3, [r3]
    8e0c:	e51b2020 	ldr	r2, [fp, #-32]	; 0xffffffe0
    8e10:	e0030392 	mul	r3, r2, r3
    8e14:	e2835010 	add	r5, r3, #16
    8e18:	e51b3018 	ldr	r3, [fp, #-24]	; 0xffffffe8
    8e1c:	e1a03103 	lsl	r3, r3, #2
    8e20:	e51b2028 	ldr	r2, [fp, #-40]	; 0xffffffd8
    8e24:	e0823003 	add	r3, r2, r3
    8e28:	e5936000 	ldr	r6, [r3]
    8e2c:	e51b0018 	ldr	r0, [fp, #-24]	; 0xffffffe8
    8e30:	e51b101c 	ldr	r1, [fp, #-28]	; 0xffffffe4
    8e34:	ebffffc3 	bl	8d48 <func2>
    8e38:	e1a03000 	mov	r3, r0
    8e3c:	e0030396 	mul	r3, r6, r3
    8e40:	e0852003 	add	r2, r5, r3
    8e44:	e51b3024 	ldr	r3, [fp, #-36]	; 0xffffffdc
    8e48:	e0823003 	add	r3, r2, r3
    8e4c:	e283200f 	add	r2, r3, #15
    8e50:	e3530000 	cmp	r3, #0
    8e54:	b1a03002 	movlt	r3, r2
    8e58:	a1a03003 	movge	r3, r3
    8e5c:	e1a03243 	asr	r3, r3, #4
    8e60:	e5843000 	str	r3, [r4]
    8e64:	e51b301c 	ldr	r3, [fp, #-28]	; 0xffffffe4
    8e68:	e2833001 	add	r3, r3, #1
    8e6c:	e50b301c 	str	r3, [fp, #-28]	; 0xffffffe4
    8e70:	e51b301c 	ldr	r3, [fp, #-28]	; 0xffffffe4
    8e74:	e3530f7d 	cmp	r3, #500	; 0x1f4
    8e78:	baffffcf 	blt	8dbc <unoptimized+0x30>
    8e7c:	e51b3018 	ldr	r3, [fp, #-24]	; 0xffffffe8
    8e80:	e2833001 	add	r3, r3, #1
    8e84:	e50b3018 	str	r3, [fp, #-24]	; 0xffffffe8
    8e88:	e51b3018 	ldr	r3, [fp, #-24]	; 0xffffffe8
    8e8c:	e3530f7d 	cmp	r3, #500	; 0x1f4
    8e90:	baffffc4 	blt	8da8 <unoptimized+0x1c>
    8e94:	e24bd010 	sub	sp, fp, #16
    8e98:	e8bd4870 	pop	{r4, r5, r6, fp, lr}
    8e9c:	e12fff1e 	bx	lr

00008ea0 <func3>:
    8ea0:	e52db004 	push	{fp}		; (str fp, [sp, #-4]!)
    8ea4:	e28db000 	add	fp, sp, #0
    8ea8:	e24dd00c 	sub	sp, sp, #12
    8eac:	e50b0008 	str	r0, [fp, #-8]
    8eb0:	e50b100c 	str	r1, [fp, #-12]
    8eb4:	e51b200c 	ldr	r2, [fp, #-12]
    8eb8:	e1a03002 	mov	r3, r2
    8ebc:	e1a03103 	lsl	r3, r3, #2
    8ec0:	e0833002 	add	r3, r3, r2
    8ec4:	e1a02103 	lsl	r2, r3, #2
    8ec8:	e0832002 	add	r2, r3, r2
    8ecc:	e51b3008 	ldr	r3, [fp, #-8]
    8ed0:	e0823003 	add	r3, r2, r3
    8ed4:	e1a00003 	mov	r0, r3
    8ed8:	e24bd000 	sub	sp, fp, #0
    8edc:	e49db004 	pop	{fp}		; (ldr fp, [sp], #4)
    8ee0:	e12fff1e 	bx	lr

00008ee4 <optimized>:
    8ee4:	e92d4870 	push	{r4, r5, r6, fp, lr}
    8ee8:	e28db010 	add	fp, sp, #16
    8eec:	e24dd01c 	sub	sp, sp, #28
    8ef0:	e50b0028 	str	r0, [fp, #-40]	; 0xffffffd8
    8ef4:	e3a03000 	mov	r3, #0
    8ef8:	e50b3018 	str	r3, [fp, #-24]	; 0xffffffe8
    8efc:	ea000037 	b	8fe0 <optimized+0xfc>
    8f00:	e3a03011 	mov	r3, #17
    8f04:	e50b3020 	str	r3, [fp, #-32]	; 0xffffffe0
    8f08:	e3a03000 	mov	r3, #0
    8f0c:	e50b301c 	str	r3, [fp, #-28]	; 0xffffffe4
    8f10:	ea00002c 	b	8fc8 <optimized+0xe4>
    8f14:	e3a03002 	mov	r3, #2
    8f18:	e50b3024 	str	r3, [fp, #-36]	; 0xffffffdc
    8f1c:	e51b3024 	ldr	r3, [fp, #-36]	; 0xffffffdc
    8f20:	e2833001 	add	r3, r3, #1
    8f24:	e50b3024 	str	r3, [fp, #-36]	; 0xffffffdc
    8f28:	e51b3024 	ldr	r3, [fp, #-36]	; 0xffffffdc
    8f2c:	e2432002 	sub	r2, r3, #2
    8f30:	e1a03002 	mov	r3, r2
    8f34:	e1a03083 	lsl	r3, r3, #1
    8f38:	e0833002 	add	r3, r3, r2
    8f3c:	e50b3024 	str	r3, [fp, #-36]	; 0xffffffdc
    8f40:	e51b301c 	ldr	r3, [fp, #-28]	; 0xffffffe4
    8f44:	e1a03103 	lsl	r3, r3, #2
    8f48:	e51b2028 	ldr	r2, [fp, #-40]	; 0xffffffd8
    8f4c:	e0824003 	add	r4, r2, r3
    8f50:	e51b301c 	ldr	r3, [fp, #-28]	; 0xffffffe4
    8f54:	e1a03103 	lsl	r3, r3, #2
    8f58:	e51b2028 	ldr	r2, [fp, #-40]	; 0xffffffd8
    8f5c:	e0823003 	add	r3, r2, r3
    8f60:	e5933000 	ldr	r3, [r3]
    8f64:	e51b2020 	ldr	r2, [fp, #-32]	; 0xffffffe0
    8f68:	e0030392 	mul	r3, r2, r3
    8f6c:	e2835010 	add	r5, r3, #16
    8f70:	e51b3018 	ldr	r3, [fp, #-24]	; 0xffffffe8
    8f74:	e1a03103 	lsl	r3, r3, #2
    8f78:	e51b2028 	ldr	r2, [fp, #-40]	; 0xffffffd8
    8f7c:	e0823003 	add	r3, r2, r3
    8f80:	e5936000 	ldr	r6, [r3]
    8f84:	e51b0018 	ldr	r0, [fp, #-24]	; 0xffffffe8
    8f88:	e51b101c 	ldr	r1, [fp, #-28]	; 0xffffffe4
    8f8c:	ebffffc3 	bl	8ea0 <func3>
    8f90:	e1a03000 	mov	r3, r0
    8f94:	e0030396 	mul	r3, r6, r3
    8f98:	e0852003 	add	r2, r5, r3
    8f9c:	e51b3024 	ldr	r3, [fp, #-36]	; 0xffffffdc
    8fa0:	e0823003 	add	r3, r2, r3
    8fa4:	e283200f 	add	r2, r3, #15
    8fa8:	e3530000 	cmp	r3, #0
    8fac:	b1a03002 	movlt	r3, r2
    8fb0:	a1a03003 	movge	r3, r3
    8fb4:	e1a03243 	asr	r3, r3, #4
    8fb8:	e5843000 	str	r3, [r4]
    8fbc:	e51b301c 	ldr	r3, [fp, #-28]	; 0xffffffe4
    8fc0:	e2833001 	add	r3, r3, #1
    8fc4:	e50b301c 	str	r3, [fp, #-28]	; 0xffffffe4
    8fc8:	e51b301c 	ldr	r3, [fp, #-28]	; 0xffffffe4
    8fcc:	e3530f7d 	cmp	r3, #500	; 0x1f4
    8fd0:	baffffcf 	blt	8f14 <optimized+0x30>
    8fd4:	e51b3018 	ldr	r3, [fp, #-24]	; 0xffffffe8
    8fd8:	e2833001 	add	r3, r3, #1
    8fdc:	e50b3018 	str	r3, [fp, #-24]	; 0xffffffe8
    8fe0:	e51b3018 	ldr	r3, [fp, #-24]	; 0xffffffe8
    8fe4:	e3530f7d 	cmp	r3, #500	; 0x1f4
    8fe8:	baffffc4 	blt	8f00 <optimized+0x1c>
    8fec:	e24bd010 	sub	sp, fp, #16
    8ff0:	e8bd4870 	pop	{r4, r5, r6, fp, lr}
    8ff4:	e12fff1e 	bx	lr

00008ff8 <__divsi3>:
    8ff8:	e3510000 	cmp	r1, #0
    8ffc:	0a000043 	beq	9110 <.divsi3_skip_div0_test+0x110>

00009000 <.divsi3_skip_div0_test>:
    9000:	e020c001 	eor	ip, r0, r1
    9004:	42611000 	rsbmi	r1, r1, #0
    9008:	e2512001 	subs	r2, r1, #1
    900c:	0a000027 	beq	90b0 <.divsi3_skip_div0_test+0xb0>
    9010:	e1b03000 	movs	r3, r0
    9014:	42603000 	rsbmi	r3, r0, #0
    9018:	e1530001 	cmp	r3, r1
    901c:	9a000026 	bls	90bc <.divsi3_skip_div0_test+0xbc>
    9020:	e1110002 	tst	r1, r2
    9024:	0a000028 	beq	90cc <.divsi3_skip_div0_test+0xcc>
    9028:	e311020e 	tst	r1, #-536870912	; 0xe0000000
    902c:	01a01181 	lsleq	r1, r1, #3
    9030:	03a02008 	moveq	r2, #8
    9034:	13a02001 	movne	r2, #1
    9038:	e3510201 	cmp	r1, #268435456	; 0x10000000
    903c:	31510003 	cmpcc	r1, r3
    9040:	31a01201 	lslcc	r1, r1, #4
    9044:	31a02202 	lslcc	r2, r2, #4
    9048:	3afffffa 	bcc	9038 <.divsi3_skip_div0_test+0x38>
    904c:	e3510102 	cmp	r1, #-2147483648	; 0x80000000
    9050:	31510003 	cmpcc	r1, r3
    9054:	31a01081 	lslcc	r1, r1, #1
    9058:	31a02082 	lslcc	r2, r2, #1
    905c:	3afffffa 	bcc	904c <.divsi3_skip_div0_test+0x4c>
    9060:	e3a00000 	mov	r0, #0
    9064:	e1530001 	cmp	r3, r1
    9068:	20433001 	subcs	r3, r3, r1
    906c:	21800002 	orrcs	r0, r0, r2
    9070:	e15300a1 	cmp	r3, r1, lsr #1
    9074:	204330a1 	subcs	r3, r3, r1, lsr #1
    9078:	218000a2 	orrcs	r0, r0, r2, lsr #1
    907c:	e1530121 	cmp	r3, r1, lsr #2
    9080:	20433121 	subcs	r3, r3, r1, lsr #2
    9084:	21800122 	orrcs	r0, r0, r2, lsr #2
    9088:	e15301a1 	cmp	r3, r1, lsr #3
    908c:	204331a1 	subcs	r3, r3, r1, lsr #3
    9090:	218001a2 	orrcs	r0, r0, r2, lsr #3
    9094:	e3530000 	cmp	r3, #0
    9098:	11b02222 	lsrsne	r2, r2, #4
    909c:	11a01221 	lsrne	r1, r1, #4
    90a0:	1affffef 	bne	9064 <.divsi3_skip_div0_test+0x64>
    90a4:	e35c0000 	cmp	ip, #0
    90a8:	42600000 	rsbmi	r0, r0, #0
    90ac:	e12fff1e 	bx	lr
    90b0:	e13c0000 	teq	ip, r0
    90b4:	42600000 	rsbmi	r0, r0, #0
    90b8:	e12fff1e 	bx	lr
    90bc:	33a00000 	movcc	r0, #0
    90c0:	01a00fcc 	asreq	r0, ip, #31
    90c4:	03800001 	orreq	r0, r0, #1
    90c8:	e12fff1e 	bx	lr
    90cc:	e3510801 	cmp	r1, #65536	; 0x10000
    90d0:	21a01821 	lsrcs	r1, r1, #16
    90d4:	23a02010 	movcs	r2, #16
    90d8:	33a02000 	movcc	r2, #0
    90dc:	e3510c01 	cmp	r1, #256	; 0x100
    90e0:	21a01421 	lsrcs	r1, r1, #8
    90e4:	22822008 	addcs	r2, r2, #8
    90e8:	e3510010 	cmp	r1, #16
    90ec:	21a01221 	lsrcs	r1, r1, #4
    90f0:	22822004 	addcs	r2, r2, #4
    90f4:	e3510004 	cmp	r1, #4
    90f8:	82822003 	addhi	r2, r2, #3
    90fc:	908220a1 	addls	r2, r2, r1, lsr #1
    9100:	e35c0000 	cmp	ip, #0
    9104:	e1a00233 	lsr	r0, r3, r2
    9108:	42600000 	rsbmi	r0, r0, #0
    910c:	e12fff1e 	bx	lr
    9110:	e3500000 	cmp	r0, #0
    9114:	c3e00102 	mvngt	r0, #-2147483648	; 0x80000000
    9118:	b3a00102 	movlt	r0, #-2147483648	; 0x80000000
    911c:	ea000007 	b	9140 <__aeabi_idiv0>

00009120 <__aeabi_idivmod>:
    9120:	e3510000 	cmp	r1, #0
    9124:	0afffff9 	beq	9110 <.divsi3_skip_div0_test+0x110>
    9128:	e92d4003 	push	{r0, r1, lr}
    912c:	ebffffb3 	bl	9000 <.divsi3_skip_div0_test>
    9130:	e8bd4006 	pop	{r1, r2, lr}
    9134:	e0030092 	mul	r3, r2, r0
    9138:	e0411003 	sub	r1, r1, r3
    913c:	e12fff1e 	bx	lr

00009140 <__aeabi_idiv0>:
    9140:	e12fff1e 	bx	lr

00009144 <__aeabi_uldivmod>:
    9144:	e3530000 	cmp	r3, #0
    9148:	03520000 	cmpeq	r2, #0
    914c:	1a000004 	bne	9164 <__aeabi_uldivmod+0x20>
    9150:	e3510000 	cmp	r1, #0
    9154:	03500000 	cmpeq	r0, #0
    9158:	13e01000 	mvnne	r1, #0
    915c:	13e00000 	mvnne	r0, #0
    9160:	eafffff6 	b	9140 <__aeabi_idiv0>
    9164:	e24dd008 	sub	sp, sp, #8
    9168:	e92d6000 	push	{sp, lr}
    916c:	eb000003 	bl	9180 <__udivmoddi4>
    9170:	e59de004 	ldr	lr, [sp, #4]
    9174:	e28dd008 	add	sp, sp, #8
    9178:	e8bd000c 	pop	{r2, r3}
    917c:	e12fff1e 	bx	lr

00009180 <__udivmoddi4>:
    9180:	e1510003 	cmp	r1, r3
    9184:	01500002 	cmpeq	r0, r2
    9188:	e92d47f0 	push	{r4, r5, r6, r7, r8, r9, sl, lr}
    918c:	e1a04000 	mov	r4, r0
    9190:	33a00000 	movcc	r0, #0
    9194:	e1a05001 	mov	r5, r1
    9198:	e59d8020 	ldr	r8, [sp, #32]
    919c:	31a01000 	movcc	r1, r0
    91a0:	3a00003e 	bcc	92a0 <__udivmoddi4+0x120>
    91a4:	e1a01003 	mov	r1, r3
    91a8:	e1a00002 	mov	r0, r2
    91ac:	e1a06002 	mov	r6, r2
    91b0:	e1a07003 	mov	r7, r3
    91b4:	eb00003d 	bl	92b0 <__clzdi2>
    91b8:	e1a01005 	mov	r1, r5
    91bc:	e1a09000 	mov	r9, r0
    91c0:	e1a00004 	mov	r0, r4
    91c4:	eb000039 	bl	92b0 <__clzdi2>
    91c8:	e049c000 	sub	ip, r9, r0
    91cc:	e24c9020 	sub	r9, ip, #32
    91d0:	e1a03c17 	lsl	r3, r7, ip
    91d4:	e1833916 	orr	r3, r3, r6, lsl r9
    91d8:	e26ca020 	rsb	sl, ip, #32
    91dc:	e1833a36 	orr	r3, r3, r6, lsr sl
    91e0:	e1550003 	cmp	r5, r3
    91e4:	e1a02c16 	lsl	r2, r6, ip
    91e8:	01540002 	cmpeq	r4, r2
    91ec:	33a00000 	movcc	r0, #0
    91f0:	31a01000 	movcc	r1, r0
    91f4:	3a000005 	bcc	9210 <__udivmoddi4+0x90>
    91f8:	e3a00001 	mov	r0, #1
    91fc:	e0544002 	subs	r4, r4, r2
    9200:	e1a01910 	lsl	r1, r0, r9
    9204:	e1811a30 	orr	r1, r1, r0, lsr sl
    9208:	e0c55003 	sbc	r5, r5, r3
    920c:	e1a00c10 	lsl	r0, r0, ip
    9210:	e35c0000 	cmp	ip, #0
    9214:	0a000021 	beq	92a0 <__udivmoddi4+0x120>
    9218:	e1a060a2 	lsr	r6, r2, #1
    921c:	e1a0e00c 	mov	lr, ip
    9220:	e1866f83 	orr	r6, r6, r3, lsl #31
    9224:	e1a070a3 	lsr	r7, r3, #1
    9228:	ea000007 	b	924c <__udivmoddi4+0xcc>
    922c:	e0543006 	subs	r3, r4, r6
    9230:	e0c52007 	sbc	r2, r5, r7
    9234:	e0933003 	adds	r3, r3, r3
    9238:	e0a22002 	adc	r2, r2, r2
    923c:	e2934001 	adds	r4, r3, #1
    9240:	e2a25000 	adc	r5, r2, #0
    9244:	e25ee001 	subs	lr, lr, #1
    9248:	0a000006 	beq	9268 <__udivmoddi4+0xe8>
    924c:	e1550007 	cmp	r5, r7
    9250:	01540006 	cmpeq	r4, r6
    9254:	2afffff4 	bcs	922c <__udivmoddi4+0xac>
    9258:	e0944004 	adds	r4, r4, r4
    925c:	e0a55005 	adc	r5, r5, r5
    9260:	e25ee001 	subs	lr, lr, #1
    9264:	1afffff8 	bne	924c <__udivmoddi4+0xcc>
    9268:	e1a03c34 	lsr	r3, r4, ip
    926c:	e1833a15 	orr	r3, r3, r5, lsl sl
    9270:	e1833935 	orr	r3, r3, r5, lsr r9
    9274:	e0900004 	adds	r0, r0, r4
    9278:	e1a04003 	mov	r4, r3
    927c:	e1a02c35 	lsr	r2, r5, ip
    9280:	e0a11005 	adc	r1, r1, r5
    9284:	e1a05002 	mov	r5, r2
    9288:	e1a03c12 	lsl	r3, r2, ip
    928c:	e1833914 	orr	r3, r3, r4, lsl r9
    9290:	e1a0cc14 	lsl	ip, r4, ip
    9294:	e050000c 	subs	r0, r0, ip
    9298:	e1833a34 	orr	r3, r3, r4, lsr sl
    929c:	e0c11003 	sbc	r1, r1, r3
    92a0:	e3580000 	cmp	r8, #0
    92a4:	18880030 	stmne	r8, {r4, r5}
    92a8:	e8bd47f0 	pop	{r4, r5, r6, r7, r8, r9, sl, lr}
    92ac:	e12fff1e 	bx	lr

000092b0 <__clzdi2>:
    92b0:	e92d4010 	push	{r4, lr}
    92b4:	e3510000 	cmp	r1, #0
    92b8:	1a000002 	bne	92c8 <__clzdi2+0x18>
    92bc:	eb000005 	bl	92d8 <__clzsi2>
    92c0:	e2800020 	add	r0, r0, #32
    92c4:	ea000001 	b	92d0 <__clzdi2+0x20>
    92c8:	e1a00001 	mov	r0, r1
    92cc:	eb000001 	bl	92d8 <__clzsi2>
    92d0:	e8bd4010 	pop	{r4, lr}
    92d4:	e12fff1e 	bx	lr

000092d8 <__clzsi2>:
    92d8:	e3a0101c 	mov	r1, #28
    92dc:	e3500801 	cmp	r0, #65536	; 0x10000
    92e0:	21a00820 	lsrcs	r0, r0, #16
    92e4:	22411010 	subcs	r1, r1, #16
    92e8:	e3500c01 	cmp	r0, #256	; 0x100
    92ec:	21a00420 	lsrcs	r0, r0, #8
    92f0:	22411008 	subcs	r1, r1, #8
    92f4:	e3500010 	cmp	r0, #16
    92f8:	21a00220 	lsrcs	r0, r0, #4
    92fc:	22411004 	subcs	r1, r1, #4
    9300:	e28f2008 	add	r2, pc, #8
    9304:	e7d20000 	ldrb	r0, [r2, r0]
    9308:	e0800001 	add	r0, r0, r1
    930c:	e12fff1e 	bx	lr
    9310:	02020304 	andeq	r0, r2, #4, 6	; 0x10000000
    9314:	01010101 	tsteq	r1, r1, lsl #2
	...

Disassembly of section .text.startup:

00009320 <_start>:
    9320:	e59ff018 	ldr	pc, [pc, #24]	; 9340 <_reset_h>
    9324:	e59ff018 	ldr	pc, [pc, #24]	; 9344 <_undefined_instruction_vector_h>
    9328:	e59ff018 	ldr	pc, [pc, #24]	; 9348 <_software_interrupt_vector_h>
    932c:	e59ff018 	ldr	pc, [pc, #24]	; 934c <_prefetch_abort_vector_h>
    9330:	e59ff018 	ldr	pc, [pc, #24]	; 9350 <_data_abort_vector_h>
    9334:	e59ff018 	ldr	pc, [pc, #24]	; 9354 <_unused_handler_h>
    9338:	e59ff018 	ldr	pc, [pc, #24]	; 9358 <_irq_asm_handler_h>
    933c:	e59ff018 	ldr	pc, [pc, #24]	; 935c <_fast_interrupt_vector_h>

00009340 <_reset_h>:
    9340:	00009360 	andeq	r9, r0, r0, ror #6

00009344 <_undefined_instruction_vector_h>:
    9344:	00008c2c 	andeq	r8, r0, ip, lsr #24

00009348 <_software_interrupt_vector_h>:
    9348:	00008c44 	andeq	r8, r0, r4, asr #24

0000934c <_prefetch_abort_vector_h>:
    934c:	00008c5c 	andeq	r8, r0, ip, asr ip

00009350 <_data_abort_vector_h>:
    9350:	00008c74 	andeq	r8, r0, r4, ror ip

00009354 <_unused_handler_h>:
    9354:	00009360 	andeq	r9, r0, r0, ror #6

00009358 <_irq_asm_handler_h>:
    9358:	000093e8 	andeq	r9, r0, r8, ror #7

0000935c <_fast_interrupt_vector_h>:
    935c:	00008cb0 			; <UNDEFINED> instruction: 0x00008cb0

00009360 <_reset_>:
    9360:	e10fc000 	mrs	ip, CPSR
    9364:	e20cc01f 	and	ip, ip, #31
    9368:	e59fb0b0 	ldr	fp, [pc, #176]	; 9420 <_enable_interrupts+0x14>
    936c:	e58bc000 	str	ip, [fp]
    9370:	ee10bf10 	mrc	15, 0, fp, cr0, cr0, {0}
    9374:	e59fa0a8 	ldr	sl, [pc, #168]	; 9424 <_enable_interrupts+0x18>
    9378:	e15b000a 	cmp	fp, sl
    937c:	0a00000b 	beq	93b0 <_setup_interrupt_table>
    9380:	e35c001a 	cmp	ip, #26
    9384:	1a000006 	bne	93a4 <_multicore_park>
    9388:	e10fc000 	mrs	ip, CPSR
    938c:	e3ccc01f 	bic	ip, ip, #31
    9390:	e38cc0d3 	orr	ip, ip, #211	; 0xd3
    9394:	e16ff00c 	msr	SPSR_fsxc, ip
    9398:	e28fe004 	add	lr, pc, #4
    939c:	e12ef30e 	msr	ELR_hyp, lr
    93a0:	e160006e 	eret

000093a4 <_multicore_park>:
    93a4:	ee10cfb0 	mrc	15, 0, ip, cr0, cr0, {5}
    93a8:	e21cc003 	ands	ip, ip, #3
    93ac:	1a00000c 	bne	93e4 <_inf_loop>

000093b0 <_setup_interrupt_table>:
    93b0:	e3a00902 	mov	r0, #32768	; 0x8000
    93b4:	e3a01000 	mov	r1, #0
    93b8:	e8b003fc 	ldm	r0!, {r2, r3, r4, r5, r6, r7, r8, r9}
    93bc:	e8a103fc 	stmia	r1!, {r2, r3, r4, r5, r6, r7, r8, r9}
    93c0:	e8b003fc 	ldm	r0!, {r2, r3, r4, r5, r6, r7, r8, r9}
    93c4:	e8a103fc 	stmia	r1!, {r2, r3, r4, r5, r6, r7, r8, r9}
    93c8:	e3a000d2 	mov	r0, #210	; 0xd2
    93cc:	e121f000 	msr	CPSR_c, r0
    93d0:	e3a0da07 	mov	sp, #28672	; 0x7000
    93d4:	e3a000d3 	mov	r0, #211	; 0xd3
    93d8:	e121f000 	msr	CPSR_c, r0
    93dc:	e3a0d902 	mov	sp, #32768	; 0x8000
    93e0:	ebfffbd6 	bl	8340 <kernel_main>

000093e4 <_inf_loop>:
    93e4:	eafffffe 	b	93e4 <_inf_loop>

000093e8 <irq_asm_handler>:
    93e8:	eafffffe 	b	93e8 <irq_asm_handler>

000093ec <reset_asm_handler>:
    93ec:	eaffffcb 	b	9320 <_start>

000093f0 <_cpsr_startup_mode>:
    93f0:	00000000 	andeq	r0, r0, r0

000093f4 <_osc>:
    93f4:	0337f980 	teqeq	r7, #128, 18	; 0x200000	; <UNPREDICTABLE>

000093f8 <_value>:
    93f8:	00063fff 	strdeq	r3, [r6], -pc	; <UNPREDICTABLE>

000093fc <_mbox>:
    93fc:	ff8000cc 			; <UNDEFINED> instruction: 0xff8000cc

00009400 <_get_stack_pointer>:
    9400:	e58dd000 	str	sp, [sp]
    9404:	e59d0000 	ldr	r0, [sp]
    9408:	e1a0f00e 	mov	pc, lr

0000940c <_enable_interrupts>:
    940c:	e10f0000 	mrs	r0, CPSR
    9410:	e3c00080 	bic	r0, r0, #128	; 0x80
    9414:	e121f000 	msr	CPSR_c, r0
    9418:	f1080080 	cpsie	i
    941c:	e1a0f00e 	mov	pc, lr
    9420:	000093f0 	strdeq	r9, [r0], -r0
    9424:	410fb767 	tstmi	pc, r7, ror #14
